target datalayout = "e-m:e-p270:32:32-p271:32:32-p272:64:64-i64:64-i128:128-f80:128-n8:16:32:64-S128"
target triple = "x86_64-pc-linux-gnu"

@.str.86 = private unnamed_addr constant [16 x i8] c"Array too big.\0A\00", align 1

; Function Attrs: nounwind uwtable
define i32 @grow_array(ptr noundef %0, i32 noundef %1, ptr noundef %2, i32 noundef %3) #0 {
  %5 = alloca i32, align 4
  %6 = alloca ptr, align 8
  %7 = alloca i32, align 4
  %8 = alloca ptr, align 8
  %9 = alloca i32, align 4
  %10 = alloca ptr, align 8
  %11 = alloca i32, align 4
  store ptr %0, ptr %6, align 8, !tbaa !208
  store i32 %1, ptr %7, align 4, !tbaa !8
  store ptr %2, ptr %8, align 8, !tbaa !60
  store i32 %3, ptr %9, align 4, !tbaa !8
  %12 = load i32, ptr %9, align 4, !tbaa !8
  %13 = load i32, ptr %7, align 4, !tbaa !8
  %14 = sdiv i32 2147483647, %13
  %15 = icmp sge i32 %12, %14
  br i1 %15, label %16, label %17

16:                                               ; preds = %4
  call void (ptr, i32, ptr, ...) @av_log(ptr noundef null, i32 noundef 16, ptr noundef @.str.86)
  store i32 -34, ptr %5, align 4
  br label %54

17:                                               ; preds = %4
  %18 = load ptr, ptr %8, align 8, !tbaa !60
  %19 = load i32, ptr %18, align 4, !tbaa !8
  %20 = load i32, ptr %9, align 4, !tbaa !8
  %21 = icmp slt i32 %19, %20
  br i1 %21, label %22, label %53

22:                                               ; preds = %17
  call void @llvm.lifetime.start.p0(i64 8, ptr %10) #11
  %23 = load ptr, ptr %6, align 8, !tbaa !208
  %24 = load ptr, ptr %23, align 8, !tbaa !4
  %25 = load i32, ptr %9, align 4, !tbaa !8
  %26 = sext i32 %25 to i64
  %27 = load i32, ptr %7, align 4, !tbaa !8
  %28 = sext i32 %27 to i64
  %29 = call ptr @av_realloc_array(ptr noundef %24, i64 noundef %26, i64 noundef %28)
  store ptr %29, ptr %10, align 8, !tbaa !10
  %30 = load ptr, ptr %10, align 8, !tbaa !10
  %31 = icmp ne ptr %30, null
  br i1 %31, label %33, label %32

32:                                               ; preds = %22
  store i32 -12, ptr %5, align 4
  store i32 1, ptr %11, align 4
  br label %52

33:                                               ; preds = %22
  %34 = load ptr, ptr %10, align 8, !tbaa !10
  %35 = load ptr, ptr %8, align 8, !tbaa !60
  %36 = load i32, ptr %35, align 4, !tbaa !8
  %37 = load i32, ptr %7, align 4, !tbaa !8
  %38 = mul nsw i32 %36, %37
  %39 = sext i32 %38 to i64
  %40 = getelementptr inbounds i8, ptr %34, i64 %39
  %41 = load i32, ptr %9, align 4, !tbaa !8
  %42 = load ptr, ptr %8, align 8, !tbaa !60
  %43 = load i32, ptr %42, align 4, !tbaa !8
  %44 = sub nsw i32 %41, %43
  %45 = load i32, ptr %7, align 4, !tbaa !8
  %46 = mul nsw i32 %44, %45
  %47 = sext i32 %46 to i64
  call void @llvm.memset.p0.i64(ptr align 1 %40, i8 0, i64 %47, i1 false)
  %48 = load i32, ptr %9, align 4, !tbaa !8
  %49 = load ptr, ptr %8, align 8, !tbaa !60
  store i32 %48, ptr %49, align 4, !tbaa !8
  %50 = load ptr, ptr %10, align 8, !tbaa !10
  %51 = load ptr, ptr %6, align 8, !tbaa !208
  store ptr %50, ptr %51, align 8, !tbaa !4
  store i32 0, ptr %5, align 4
  store i32 1, ptr %11, align 4
  br label %52

52:                                               ; preds = %33, %32
  call void @llvm.lifetime.end.p0(i64 8, ptr %10) #11
  br label %54

53:                                               ; preds = %17
  store i32 0, ptr %5, align 4
  br label %54

54:                                               ; preds = %53, %52, %16
  %55 = load i32, ptr %5, align 4
  ret i32 %55
}