; Function Attrs: nounwind uwtable
define range(i32 -34, 1) i32 @grow_array(ptr noundef captures(none) %0, i32 noundef %1, ptr noundef captures(none) %2, i32 noundef %3) local_unnamed_addr #0 {
  %5 = sdiv i32 2147483647, %1
  %.not = icmp slt i32 %3, %5
  br i1 %.not, label %7, label %6

6:                                                ; preds = %4
  tail call void (ptr, i32, ptr, ...) @av_log(ptr noundef null, i32 noundef 16, ptr noundef nonnull @.str.86) #15
  br label %23

7:                                                ; preds = %4
  %8 = load i32, ptr %2, align 4, !tbaa !37
  %9 = icmp slt i32 %8, %3
  br i1 %9, label %10, label %23

10:                                               ; preds = %7
  %11 = load ptr, ptr %0, align 8, !tbaa !24
  %12 = sext i32 %3 to i64
  %13 = sext i32 %1 to i64
  %14 = tail call ptr @av_realloc_array(ptr noundef %11, i64 noundef %12, i64 noundef %13) #15
  %.not20 = icmp eq ptr %14, null
  br i1 %.not20, label %23, label %15

15:                                               ; preds = %10
  %16 = load i32, ptr %2, align 4, !tbaa !37
  %17 = mul nsw i32 %16, %1
  %18 = sext i32 %17 to i64
  %19 = getelementptr inbounds i8, ptr %14, i64 %18
  %20 = sub nsw i32 %3, %16
  %21 = mul nsw i32 %20, %1
  %22 = sext i32 %21 to i64
  tail call void @llvm.memset.p0.i64(ptr nonnull align 1 %19, i8 0, i64 %22, i1 false)
  store i32 %3, ptr %2, align 4, !tbaa !37
  store ptr %14, ptr %0, align 8, !tbaa !24
  br label %23

23:                                               ; preds = %7, %15, %10, %6
  %.0 = phi i32 [ -34, %6 ], [ 0, %15 ], [ -12, %10 ], [ 0, %7 ]
  ret i32 %.0
}